; Function Attrs: nounwind uwtable
define noundef ptr @l_Lean_IR_FnBody_replaceVar___lambda__1(ptr noundef %0, ptr noundef %1, ptr noundef %2) local_unnamed_addr #0 {
  %4 = ptrtoint ptr %0 to i64
  %5 = ptrtoint ptr %2 to i64
  %6 = and i64 %4, 1
  %7 = and i64 %6, %5
  %or.cond.not = icmp eq i64 %7, 0
  br i1 %or.cond.not, label %lean_nat_eq.exit, label %8, !prof !19

8:                                                ; preds = %3
  %9 = icmp eq ptr %0, %2
  br i1 %9, label %19, label %11

lean_nat_eq.exit:                                 ; preds = %3
  %10 = tail call zeroext i1 @lean_nat_big_eq(ptr noundef %0, ptr noundef %2) #4
  br i1 %10, label %19, label %11

11:                                               ; preds = %8, %lean_nat_eq.exit
  %12 = and i64 %5, 1
  %.not13 = icmp eq i64 %12, 0
  br i1 %.not13, label %13, label %lean_inc.exit7

13:                                               ; preds = %11
  %.val.i = load i32, ptr %2, align 4, !tbaa !9
  %14 = icmp sgt i32 %.val.i, 0
  br i1 %14, label %15, label %17, !prof !12

15:                                               ; preds = %13
  %16 = add nuw i32 %.val.i, 1
  store i32 %16, ptr %2, align 4, !tbaa !9
  br label %lean_inc.exit7

17:                                               ; preds = %13
  %.not.i = icmp eq i32 %.val.i, 0
  br i1 %.not.i, label %lean_inc.exit7, label %18

18:                                               ; preds = %17
  tail call void @lean_inc_ref_cold(ptr noundef nonnull %2) #4
  br label %lean_inc.exit7

19:                                               ; preds = %8, %lean_nat_eq.exit
  %20 = ptrtoint ptr %1 to i64
  %21 = and i64 %20, 1
  %.not = icmp eq i64 %21, 0
  br i1 %.not, label %22, label %lean_inc.exit7

22:                                               ; preds = %19
  %.val.i8 = load i32, ptr %1, align 4, !tbaa !9
  %23 = icmp sgt i32 %.val.i8, 0
  br i1 %23, label %24, label %26, !prof !12

24:                                               ; preds = %22
  %25 = add nuw i32 %.val.i8, 1
  store i32 %25, ptr %1, align 4, !tbaa !9
  br label %lean_inc.exit7

26:                                               ; preds = %22
  %.not.i9 = icmp eq i32 %.val.i8, 0
  br i1 %.not.i9, label %lean_inc.exit7, label %27

27:                                               ; preds = %26
  tail call void @lean_inc_ref_cold(ptr noundef nonnull %1) #4
  br label %lean_inc.exit7

lean_inc.exit7:                                   ; preds = %19, %24, %26, %27, %11, %15, %17, %18
  %.0 = phi ptr [ %2, %18 ], [ %2, %17 ], [ %2, %15 ], [ %2, %11 ], [ %1, %27 ], [ %1, %26 ], [ %1, %24 ], [ %1, %19 ]
  ret ptr %.0
}